target datalayout = "e-m:e-p270:32:32-p271:32:32-p272:64:64-i64:64-i128:128-f80:128-n8:16:32:64-S128"
target triple = "x86_64-pc-linux-gnu"

@progname = internal global ptr null, align 8
@.str = private unnamed_addr constant [9 x i8] c"rdjpgcom\00", align 1
@.str.1 = private unnamed_addr constant [8 x i8] c"verbose\00", align 1
@.str.2 = private unnamed_addr constant [4 x i8] c"raw\00", align 1
@stderr = external global ptr, align 8
@.str.3 = private unnamed_addr constant [25 x i8] c"%s: only one input file\0A\00", align 1
@.str.4 = private unnamed_addr constant [3 x i8] c"rb\00", align 1
@infile = internal global ptr null, align 8
@.str.5 = private unnamed_addr constant [19 x i8] c"%s: can't open %s\0A\00", align 1
@stdin = external global ptr, align 8
@.str.6 = private unnamed_addr constant [56 x i8] c"rdjpgcom displays any textual comments in a JPEG file.\0A\00", align 1
@.str.7 = private unnamed_addr constant [34 x i8] c"Usage: %s [switches] [inputfile]\0A\00", align 1
@.str.8 = private unnamed_addr constant [38 x i8] c"Switches (names may be abbreviated):\0A\00", align 1
@.str.9 = private unnamed_addr constant [69 x i8] c"  -raw        Display non-printable characters in comments (unsafe)\0A\00", align 1
@.str.10 = private unnamed_addr constant [53 x i8] c"  -verbose    Also display dimensions of JPEG image\0A\00", align 1

; Function Attrs: nounwind uwtable
define internal void @usage() #0 {
  %1 = load ptr, ptr @stderr, align 8
  %2 = call i32 (ptr, ptr, ...) @fprintf(ptr noundef %1, ptr noundef @.str.6) #6
  %3 = load ptr, ptr @stderr, align 8
  %4 = load ptr, ptr @progname, align 8
  %5 = call i32 (ptr, ptr, ...) @fprintf(ptr noundef %3, ptr noundef @.str.7, ptr noundef %4) #6
  %6 = load ptr, ptr @stderr, align 8
  %7 = call i32 (ptr, ptr, ...) @fprintf(ptr noundef %6, ptr noundef @.str.8) #6
  %8 = load ptr, ptr @stderr, align 8
  %9 = call i32 (ptr, ptr, ...) @fprintf(ptr noundef %8, ptr noundef @.str.9) #6
  %10 = load ptr, ptr @stderr, align 8
  %11 = call i32 (ptr, ptr, ...) @fprintf(ptr noundef %10, ptr noundef @.str.10) #6
  call void @exit(i32 noundef 1) #7
  unreachable
}

; Function Attrs: nounwind uwtable
define internal i32 @keymatch(ptr noundef %0, ptr noundef %1, i32 noundef %2) #0 {
  %4 = alloca i32, align 4
  %5 = alloca ptr, align 8
  %6 = alloca ptr, align 8
  %7 = alloca i32, align 4
  %8 = alloca i32, align 4
  %9 = alloca i32, align 4
  %10 = alloca i32, align 4
  store ptr %0, ptr %5, align 8
  store ptr %1, ptr %6, align 8
  store i32 %2, ptr %7, align 4
  store i32 0, ptr %10, align 4
  br label %11

11:                                               ; preds = %42, %3
  %12 = load ptr, ptr %5, align 8
  %13 = getelementptr inbounds i8, ptr %12, i32 1
  store ptr %13, ptr %5, align 8
  %14 = load i8, ptr %12, align 1
  %15 = sext i8 %14 to i32
  store i32 %15, ptr %8, align 4
  %16 = icmp ne i32 %15, 0
  br i1 %16, label %17, label %45

17:                                               ; preds = %11
  %18 = load ptr, ptr %6, align 8
  %19 = getelementptr inbounds i8, ptr %18, i32 1
  store ptr %19, ptr %6, align 8
  %20 = load i8, ptr %18, align 1
  %21 = sext i8 %20 to i32
  store i32 %21, ptr %9, align 4
  %22 = icmp eq i32 %21, 0
  br i1 %22, label %23, label %24

23:                                               ; preds = %17
  store i32 0, ptr %4, align 4
  br label %51

24:                                               ; preds = %17
  %25 = call ptr @__ctype_b_loc() #8
  %26 = load ptr, ptr %25, align 8
  %27 = load i32, ptr %8, align 4
  %28 = sext i32 %27 to i64
  %29 = getelementptr inbounds i16, ptr %26, i64 %28
  %30 = load i16, ptr %29, align 2
  %31 = zext i16 %30 to i32
  %32 = and i32 %31, 256
  %33 = icmp ne i32 %32, 0
  br i1 %33, label %34, label %37

34:                                               ; preds = %24
  %35 = load i32, ptr %8, align 4
  %36 = call i32 @tolower(i32 noundef %35) #9
  store i32 %36, ptr %8, align 4
  br label %37

37:                                               ; preds = %34, %24
  %38 = load i32, ptr %8, align 4
  %39 = load i32, ptr %9, align 4
  %40 = icmp ne i32 %38, %39
  br i1 %40, label %41, label %42

41:                                               ; preds = %37
  store i32 0, ptr %4, align 4
  br label %51

42:                                               ; preds = %37
  %43 = load i32, ptr %10, align 4
  %44 = add nsw i32 %43, 1
  store i32 %44, ptr %10, align 4
  br label %11, !llvm.loop !7

45:                                               ; preds = %11
  %46 = load i32, ptr %10, align 4
  %47 = load i32, ptr %7, align 4
  %48 = icmp slt i32 %46, %47
  br i1 %48, label %49, label %50

49:                                               ; preds = %45
  store i32 0, ptr %4, align 4
  br label %51

50:                                               ; preds = %45
  store i32 1, ptr %4, align 4
  br label %51

51:                                               ; preds = %50, %49, %41, %23
  %52 = load i32, ptr %4, align 4
  ret i32 %52
}

; Function Attrs: nounwind uwtable
define dso_local i32 @main(i32 noundef %0, ptr noundef %1) #0 {
  %3 = alloca i32, align 4
  %4 = alloca i32, align 4
  %5 = alloca ptr, align 8
  %6 = alloca i32, align 4
  %7 = alloca ptr, align 8
  %8 = alloca i32, align 4
  %9 = alloca i32, align 4
  store i32 0, ptr %3, align 4
  store i32 %0, ptr %4, align 4
  store ptr %1, ptr %5, align 8
  store i32 0, ptr %8, align 4
  store i32 0, ptr %9, align 4
  %10 = load ptr, ptr %5, align 8
  %11 = getelementptr inbounds ptr, ptr %10, i64 0
  %12 = load ptr, ptr %11, align 8
  store ptr %12, ptr @progname, align 8
  %13 = load ptr, ptr @progname, align 8
  %14 = icmp eq ptr %13, null
  br i1 %14, label %21, label %15

15:                                               ; preds = %2
  %16 = load ptr, ptr @progname, align 8
  %17 = getelementptr inbounds i8, ptr %16, i64 0
  %18 = load i8, ptr %17, align 1
  %19 = sext i8 %18 to i32
  %20 = icmp eq i32 %19, 0
  br i1 %20, label %21, label %22

21:                                               ; preds = %15, %2
  store ptr @.str, ptr @progname, align 8
  br label %22

22:                                               ; preds = %21, %15
  store i32 1, ptr %6, align 4
  br label %23

23:                                               ; preds = %56, %22
  %24 = load i32, ptr %6, align 4
  %25 = load i32, ptr %4, align 4
  %26 = icmp slt i32 %24, %25
  br i1 %26, label %27, label %59

27:                                               ; preds = %23
  %28 = load ptr, ptr %5, align 8
  %29 = load i32, ptr %6, align 4
  %30 = sext i32 %29 to i64
  %31 = getelementptr inbounds ptr, ptr %28, i64 %30
  %32 = load ptr, ptr %31, align 8
  store ptr %32, ptr %7, align 8
  %33 = load ptr, ptr %7, align 8
  %34 = getelementptr inbounds i8, ptr %33, i64 0
  %35 = load i8, ptr %34, align 1
  %36 = sext i8 %35 to i32
  %37 = icmp ne i32 %36, 45
  br i1 %37, label %38, label %39

38:                                               ; preds = %27
  br label %59

39:                                               ; preds = %27
  %40 = load ptr, ptr %7, align 8
  %41 = getelementptr inbounds i8, ptr %40, i32 1
  store ptr %41, ptr %7, align 8
  %42 = load ptr, ptr %7, align 8
  %43 = call i32 @keymatch(ptr noundef %42, ptr noundef @.str.1, i32 noundef 1)
  %44 = icmp ne i32 %43, 0
  br i1 %44, label %45, label %48

45:                                               ; preds = %39
  %46 = load i32, ptr %8, align 4
  %47 = add nsw i32 %46, 1
  store i32 %47, ptr %8, align 4
  br label %55

48:                                               ; preds = %39
  %49 = load ptr, ptr %7, align 8
  %50 = call i32 @keymatch(ptr noundef %49, ptr noundef @.str.2, i32 noundef 1)
  %51 = icmp ne i32 %50, 0
  br i1 %51, label %52, label %53

52:                                               ; preds = %48
  store i32 1, ptr %9, align 4
  br label %54

53:                                               ; preds = %48
  call void @usage()
  br label %54

54:                                               ; preds = %53, %52
  br label %55

55:                                               ; preds = %54, %45
  br label %56

56:                                               ; preds = %55
  %57 = load i32, ptr %6, align 4
  %58 = add nsw i32 %57, 1
  store i32 %58, ptr %6, align 4
  br label %23, !llvm.loop !5

59:                                               ; preds = %38, %23
  %60 = load i32, ptr %6, align 4
  %61 = load i32, ptr %4, align 4
  %62 = sub nsw i32 %61, 1
  %63 = icmp slt i32 %60, %62
  br i1 %63, label %64, label %68

64:                                               ; preds = %59
  %65 = load ptr, ptr @stderr, align 8
  %66 = load ptr, ptr @progname, align 8
  %67 = call i32 (ptr, ptr, ...) @fprintf(ptr noundef %65, ptr noundef @.str.3, ptr noundef %66) #6
  call void @usage()
  br label %68

68:                                               ; preds = %64, %59
  %69 = load i32, ptr %6, align 4
  %70 = load i32, ptr %4, align 4
  %71 = icmp slt i32 %69, %70
  br i1 %71, label %72, label %90

72:                                               ; preds = %68
  %73 = load ptr, ptr %5, align 8
  %74 = load i32, ptr %6, align 4
  %75 = sext i32 %74 to i64
  %76 = getelementptr inbounds ptr, ptr %73, i64 %75
  %77 = load ptr, ptr %76, align 8
  %78 = call noalias ptr @fopen(ptr noundef %77, ptr noundef @.str.4)
  store ptr %78, ptr @infile, align 8
  %79 = icmp eq ptr %78, null
  br i1 %79, label %80, label %89

80:                                               ; preds = %72
  %81 = load ptr, ptr @stderr, align 8
  %82 = load ptr, ptr @progname, align 8
  %83 = load ptr, ptr %5, align 8
  %84 = load i32, ptr %6, align 4
  %85 = sext i32 %84 to i64
  %86 = getelementptr inbounds ptr, ptr %83, i64 %85
  %87 = load ptr, ptr %86, align 8
  %88 = call i32 (ptr, ptr, ...) @fprintf(ptr noundef %81, ptr noundef @.str.5, ptr noundef %82, ptr noundef %87) #6
  call void @exit(i32 noundef 1) #7
  unreachable

89:                                               ; preds = %72
  br label %92

90:                                               ; preds = %68
  %91 = load ptr, ptr @stdin, align 8
  store ptr %91, ptr @infile, align 8
  br label %92

92:                                               ; preds = %90, %89
  %93 = load i32, ptr %8, align 4
  %94 = load i32, ptr %9, align 4
  %95 = call i32 @scan_JPEG_header(i32 noundef %93, i32 noundef %94)
  call void @exit(i32 noundef 0) #7
  unreachable
}