; Function Attrs: noreturn nounwind uwtable
define dso_local noundef i32 @main(i32 noundef %0, ptr nocapture noundef readonly %1) local_unnamed_addr #0 {
  %3 = load ptr, ptr %1, align 8
  store ptr %3, ptr @progname, align 8
  %4 = icmp eq ptr %3, null
  br i1 %4, label %8, label %5

5:                                                ; preds = %2
  %6 = load i8, ptr %3, align 1
  %7 = icmp eq i8 %6, 0
  br i1 %7, label %8, label %9

8:                                                ; preds = %5, %2
  store ptr @.str, ptr @progname, align 8
  br label %9

9:                                                ; preds = %8, %5
  %10 = phi ptr [ @.str, %8 ], [ %3, %5 ]
  %11 = icmp sgt i32 %0, 1
  br i1 %11, label %.lr.ph.preheader, label %._crit_edge

.lr.ph.preheader:                                 ; preds = %9
  %12 = zext nneg i32 %0 to i64
  %wide.trip.count = zext nneg i32 %0 to i64
  %13 = getelementptr inbounds i8, ptr %1, i64 8
  %14 = load ptr, ptr %13, align 8
  %15 = load i8, ptr %14, align 1
  %.not119 = icmp eq i8 %15, 45
  br i1 %.not119, label %.lr.ph123, label %._crit_edge

.lr.ph:                                           ; preds = %keymatch.exit37
  %16 = getelementptr inbounds ptr, ptr %1, i64 %indvars.iv.next
  %17 = load ptr, ptr %16, align 8
  %18 = load i8, ptr %17, align 1
  %.not = icmp eq i8 %18, 45
  br i1 %.not, label %.lr.ph123, label %.lr.ph.._crit_edge.loopexit_crit_edge, !llvm.loop !5

.lr.ph123:                                        ; preds = %.lr.ph.preheader, %.lr.ph
  %19 = phi ptr [ %17, %.lr.ph ], [ %14, %.lr.ph.preheader ]
  %.02060122 = phi i32 [ %.121, %.lr.ph ], [ 0, %.lr.ph.preheader ]
  %.061121 = phi i32 [ %.1, %.lr.ph ], [ 0, %.lr.ph.preheader ]
  %indvars.iv120 = phi i64 [ %indvars.iv.next, %.lr.ph ], [ 1, %.lr.ph.preheader ]
  %20 = getelementptr inbounds i8, ptr %19, i64 1
  %21 = load i8, ptr %20, align 1
  %.not18.i.not = icmp eq i8 %21, 0
  br i1 %.not18.i.not, label %keymatch.exit37.thread, label %.lr.ph.i

.lr.ph.i:                                         ; preds = %.lr.ph123, %37
  %22 = phi i8 [ %38, %37 ], [ %21, %.lr.ph123 ]
  %.pn.i = phi ptr [ %23, %37 ], [ %20, %.lr.ph123 ]
  %.01219.i.idx = phi i64 [ %.01219.i.add, %37 ], [ 0, %.lr.ph123 ]
  %.01219.i.ptr = getelementptr inbounds i8, ptr @.str.1, i64 %.01219.i.idx
  %23 = getelementptr inbounds i8, ptr %.pn.i, i64 1
  %24 = sext i8 %22 to i32
  %.01219.i.add = add nuw nsw i64 %.01219.i.idx, 1
  %25 = load i8, ptr %.01219.i.ptr, align 1
  %26 = sext i8 %25 to i32
  %exitcond = icmp eq i64 %.01219.i.idx, 7
  br i1 %exitcond, label %.lr.ph.i30.preheader, label %27

.lr.ph.i30.preheader:                             ; preds = %36, %.lr.ph.i
  br label %.lr.ph.i30

27:                                               ; preds = %.lr.ph.i
  %28 = tail call ptr @__ctype_b_loc() #8
  %29 = load ptr, ptr %28, align 8
  %30 = sext i8 %22 to i64
  %31 = getelementptr inbounds i16, ptr %29, i64 %30
  %32 = load i16, ptr %31, align 2
  %33 = and i16 %32, 256
  %.not15.i = icmp eq i16 %33, 0
  br i1 %.not15.i, label %36, label %34

34:                                               ; preds = %27
  %35 = tail call i32 @tolower(i32 noundef %24) #9
  br label %36

36:                                               ; preds = %34, %27
  %.010.i = phi i32 [ %35, %34 ], [ %24, %27 ]
  %.not16.i = icmp eq i32 %.010.i, %26
  br i1 %.not16.i, label %37, label %.lr.ph.i30.preheader

37:                                               ; preds = %36
  %38 = load i8, ptr %23, align 1
  %.not.i = icmp eq i8 %38, 0
  br i1 %.not.i, label %keymatch.exit, label %.lr.ph.i, !llvm.loop !7

keymatch.exit:                                    ; preds = %37
  %39 = add nsw i32 %.02060122, 1
  br label %keymatch.exit37

.lr.ph.i30:                                       ; preds = %.lr.ph.i30.preheader, %55
  %40 = phi i8 [ %56, %55 ], [ %21, %.lr.ph.i30.preheader ]
  %.pn.i31 = phi ptr [ %41, %55 ], [ %20, %.lr.ph.i30.preheader ]
  %.01219.i32.idx = phi i64 [ %.01219.i32.add, %55 ], [ 0, %.lr.ph.i30.preheader ]
  %.01219.i32.ptr = getelementptr inbounds i8, ptr @.str.2, i64 %.01219.i32.idx
  %41 = getelementptr inbounds i8, ptr %.pn.i31, i64 1
  %42 = sext i8 %40 to i32
  %.01219.i32.add = add nuw nsw i64 %.01219.i32.idx, 1
  %43 = load i8, ptr %.01219.i32.ptr, align 1
  %44 = sext i8 %43 to i32
  %exitcond71 = icmp eq i64 %.01219.i32.idx, 3
  br i1 %exitcond71, label %keymatch.exit37.thread, label %45

45:                                               ; preds = %.lr.ph.i30
  %46 = tail call ptr @__ctype_b_loc() #8
  %47 = load ptr, ptr %46, align 8
  %48 = sext i8 %40 to i64
  %49 = getelementptr inbounds i16, ptr %47, i64 %48
  %50 = load i16, ptr %49, align 2
  %51 = and i16 %50, 256
  %.not15.i33 = icmp eq i16 %51, 0
  br i1 %.not15.i33, label %54, label %52

52:                                               ; preds = %45
  %53 = tail call i32 @tolower(i32 noundef %42) #9
  br label %54

54:                                               ; preds = %52, %45
  %.010.i34 = phi i32 [ %53, %52 ], [ %42, %45 ]
  %.not16.i35 = icmp eq i32 %.010.i34, %44
  br i1 %.not16.i35, label %55, label %keymatch.exit37.thread

55:                                               ; preds = %54
  %56 = load i8, ptr %41, align 1
  %.not.i36 = icmp eq i8 %56, 0
  br i1 %.not.i36, label %keymatch.exit37, label %.lr.ph.i30, !llvm.loop !7

keymatch.exit37.thread:                           ; preds = %.lr.ph123, %54, %.lr.ph.i30
  %57 = load ptr, ptr @stderr, align 8
  %58 = tail call i64 @fwrite(ptr nonnull @.str.6, i64 55, i64 1, ptr %57) #10
  %59 = load ptr, ptr @stderr, align 8
  %60 = load ptr, ptr @progname, align 8
  %61 = tail call i32 (ptr, ptr, ...) @fprintf(ptr noundef %59, ptr noundef nonnull @.str.7, ptr noundef %60) #11
  %62 = load ptr, ptr @stderr, align 8
  %63 = tail call i64 @fwrite(ptr nonnull @.str.8, i64 37, i64 1, ptr %62) #10
  %64 = load ptr, ptr @stderr, align 8
  %65 = tail call i64 @fwrite(ptr nonnull @.str.9, i64 68, i64 1, ptr %64) #10
  %66 = load ptr, ptr @stderr, align 8
  %67 = tail call i64 @fwrite(ptr nonnull @.str.10, i64 52, i64 1, ptr %66) #10
  tail call void @exit(i32 noundef 1) #12
  unreachable

keymatch.exit37:                                  ; preds = %55, %keymatch.exit
  %.121 = phi i32 [ %39, %keymatch.exit ], [ %.02060122, %55 ]
  %.1 = phi i32 [ %.061121, %keymatch.exit ], [ 1, %55 ]
  %indvars.iv.next = add nuw nsw i64 %indvars.iv120, 1
  %exitcond72.not = icmp eq i64 %indvars.iv.next, %wide.trip.count
  br i1 %exitcond72.not, label %._crit_edge.thread, label %.lr.ph, !llvm.loop !5

._crit_edge.thread:                               ; preds = %keymatch.exit37
  %68 = icmp ult i64 %indvars.iv.next, %12
  br i1 %68, label %88, label %99

.lr.ph.._crit_edge.loopexit_crit_edge:            ; preds = %.lr.ph
  %69 = icmp ult i64 %indvars.iv.next, %12
  %70 = trunc nuw nsw i64 %indvars.iv.next to i32
  br label %._crit_edge

._crit_edge:                                      ; preds = %.lr.ph.preheader, %.lr.ph.._crit_edge.loopexit_crit_edge, %9
  %.022.lcssa = phi i32 [ 1, %9 ], [ %70, %.lr.ph.._crit_edge.loopexit_crit_edge ], [ 1, %.lr.ph.preheader ]
  %.020.lcssa = phi i32 [ 0, %9 ], [ %.121, %.lr.ph.._crit_edge.loopexit_crit_edge ], [ 0, %.lr.ph.preheader ]
  %.0.lcssa = phi i32 [ 0, %9 ], [ %.1, %.lr.ph.._crit_edge.loopexit_crit_edge ], [ 0, %.lr.ph.preheader ]
  %.lcssa = phi i1 [ false, %9 ], [ %69, %.lr.ph.._crit_edge.loopexit_crit_edge ], [ true, %.lr.ph.preheader ]
  %71 = add nsw i32 %0, -1
  %72 = icmp slt i32 %.022.lcssa, %71
  br i1 %72, label %73, label %87

73:                                               ; preds = %._crit_edge
  %74 = load ptr, ptr @stderr, align 8
  %75 = tail call i32 (ptr, ptr, ...) @fprintf(ptr noundef %74, ptr noundef nonnull @.str.3, ptr noundef nonnull %10) #11
  %76 = load ptr, ptr @stderr, align 8
  %77 = tail call i64 @fwrite(ptr nonnull @.str.6, i64 55, i64 1, ptr %76) #10
  %78 = load ptr, ptr @stderr, align 8
  %79 = load ptr, ptr @progname, align 8
  %80 = tail call i32 (ptr, ptr, ...) @fprintf(ptr noundef %78, ptr noundef nonnull @.str.7, ptr noundef %79) #11
  %81 = load ptr, ptr @stderr, align 8
  %82 = tail call i64 @fwrite(ptr nonnull @.str.8, i64 37, i64 1, ptr %81) #10
  %83 = load ptr, ptr @stderr, align 8
  %84 = tail call i64 @fwrite(ptr nonnull @.str.9, i64 68, i64 1, ptr %83) #10
  %85 = load ptr, ptr @stderr, align 8
  %86 = tail call i64 @fwrite(ptr nonnull @.str.10, i64 52, i64 1, ptr %85) #10
  tail call void @exit(i32 noundef 1) #12
  unreachable

87:                                               ; preds = %._crit_edge
  br i1 %.lcssa, label %88, label %99

88:                                               ; preds = %._crit_edge.thread, %87
  %.022.lcssa7787 = phi i32 [ %0, %._crit_edge.thread ], [ %.022.lcssa, %87 ]
  %.020.lcssa7886 = phi i32 [ %.121, %._crit_edge.thread ], [ %.020.lcssa, %87 ]
  %.0.lcssa7983 = phi i32 [ %.1, %._crit_edge.thread ], [ %.0.lcssa, %87 ]
  %89 = zext nneg i32 %.022.lcssa7787 to i64
  %90 = getelementptr inbounds ptr, ptr %1, i64 %89
  %91 = load ptr, ptr %90, align 8
  %92 = tail call noalias ptr @fopen(ptr noundef %91, ptr noundef nonnull @.str.4)
  store ptr %92, ptr @infile, align 8
  %93 = icmp eq ptr %92, null
  br i1 %93, label %94, label %101

94:                                               ; preds = %88
  %95 = load ptr, ptr @stderr, align 8
  %96 = load ptr, ptr @progname, align 8
  %97 = load ptr, ptr %90, align 8
  %98 = tail call i32 (ptr, ptr, ...) @fprintf(ptr noundef %95, ptr noundef nonnull @.str.5, ptr noundef %96, ptr noundef %97) #11
  tail call void @exit(i32 noundef 1) #12
  unreachable

99:                                               ; preds = %._crit_edge.thread, %87
  %.020.lcssa7885 = phi i32 [ %.121, %._crit_edge.thread ], [ %.020.lcssa, %87 ]
  %.0.lcssa7982 = phi i32 [ %.1, %._crit_edge.thread ], [ %.0.lcssa, %87 ]
  %100 = load ptr, ptr @stdin, align 8
  store ptr %100, ptr @infile, align 8
  br label %101

101:                                              ; preds = %88, %99
  %.020.lcssa7884 = phi i32 [ %.020.lcssa7886, %88 ], [ %.020.lcssa7885, %99 ]
  %.0.lcssa7981 = phi i32 [ %.0.lcssa7983, %88 ], [ %.0.lcssa7982, %99 ]
  tail call fastcc void @scan_JPEG_header(i32 noundef %.020.lcssa7884, i32 noundef %.0.lcssa7981)
  tail call void @exit(i32 noundef 0) #12
  unreachable
}